target datalayout = "e-m:e-p270:32:32-p271:32:32-p272:64:64-i64:64-i128:128-f80:128-n8:16:32:64-S128"
target triple = "x86_64-pc-linux-gnu"

; Function Attrs: nounwind uwtable
define void @dt_gpx_geodesic_distance(double noundef %0, double noundef %1, double noundef %2, double noundef %3, ptr noundef %4, ptr noundef %5) #0 {
  %7 = alloca double, align 8
  %8 = alloca double, align 8
  %9 = alloca double, align 8
  %10 = alloca double, align 8
  %11 = alloca ptr, align 8
  %12 = alloca ptr, align 8
  %13 = alloca double, align 8
  %14 = alloca double, align 8
  %15 = alloca double, align 8
  %16 = alloca double, align 8
  %17 = alloca double, align 8
  %18 = alloca double, align 8
  %19 = alloca double, align 8
  %20 = alloca double, align 8
  %21 = alloca double, align 8
  store double %0, ptr %7, align 8, !tbaa !89
  store double %1, ptr %8, align 8, !tbaa !89
  store double %2, ptr %9, align 8, !tbaa !89
  store double %3, ptr %10, align 8, !tbaa !89
  store ptr %4, ptr %11, align 8, !tbaa !90
  store ptr %5, ptr %12, align 8, !tbaa !90
  call void @llvm.lifetime.start.p0(i64 8, ptr %13) #10
  %22 = load double, ptr %7, align 8, !tbaa !89
  %23 = fmul reassoc nsz arcp contract afn double %22, 0x400921FB54442D18
  %24 = fdiv reassoc nsz arcp contract afn double %23, 1.800000e+02
  store double %24, ptr %13, align 8, !tbaa !89
  call void @llvm.lifetime.start.p0(i64 8, ptr %14) #10
  %25 = load double, ptr %9, align 8, !tbaa !89
  %26 = fmul reassoc nsz arcp contract afn double %25, 0x400921FB54442D18
  %27 = fdiv reassoc nsz arcp contract afn double %26, 1.800000e+02
  store double %27, ptr %14, align 8, !tbaa !89
  call void @llvm.lifetime.start.p0(i64 8, ptr %15) #10
  %28 = load double, ptr %8, align 8, !tbaa !89
  %29 = fmul reassoc nsz arcp contract afn double %28, 0x400921FB54442D18
  %30 = fdiv reassoc nsz arcp contract afn double %29, 1.800000e+02
  store double %30, ptr %15, align 8, !tbaa !89
  call void @llvm.lifetime.start.p0(i64 8, ptr %16) #10
  %31 = load double, ptr %10, align 8, !tbaa !89
  %32 = fmul reassoc nsz arcp contract afn double %31, 0x400921FB54442D18
  %33 = fdiv reassoc nsz arcp contract afn double %32, 1.800000e+02
  store double %33, ptr %16, align 8, !tbaa !89
  call void @llvm.lifetime.start.p0(i64 8, ptr %17) #10
  %34 = load double, ptr %14, align 8, !tbaa !89
  %35 = load double, ptr %13, align 8, !tbaa !89
  %36 = fsub reassoc nsz arcp contract afn double %34, %35
  store double %36, ptr %17, align 8, !tbaa !89
  call void @llvm.lifetime.start.p0(i64 8, ptr %18) #10
  %37 = load double, ptr %16, align 8, !tbaa !89
  %38 = load double, ptr %15, align 8, !tbaa !89
  %39 = fsub reassoc nsz arcp contract afn double %37, %38
  store double %39, ptr %18, align 8, !tbaa !89
  call void @llvm.lifetime.start.p0(i64 8, ptr %19) #10
  %40 = load double, ptr %17, align 8, !tbaa !89
  %41 = fdiv reassoc nsz arcp contract afn double %40, 2.000000e+00
  %42 = call reassoc nsz arcp contract afn double @llvm.sin.f64(double %41)
  store double %42, ptr %19, align 8, !tbaa !89
  call void @llvm.lifetime.start.p0(i64 8, ptr %20) #10
  %43 = load double, ptr %18, align 8, !tbaa !89
  %44 = fdiv reassoc nsz arcp contract afn double %43, 2.000000e+00
  %45 = call reassoc nsz arcp contract afn double @llvm.sin.f64(double %44)
  store double %45, ptr %20, align 8, !tbaa !89
  call void @llvm.lifetime.start.p0(i64 8, ptr %21) #10
  %46 = load double, ptr %19, align 8, !tbaa !89
  %47 = load double, ptr %19, align 8, !tbaa !89
  %48 = fmul reassoc nsz arcp contract afn double %46, %47
  %49 = load double, ptr %13, align 8, !tbaa !89
  %50 = call reassoc nsz arcp contract afn double @llvm.cos.f64(double %49)
  %51 = load double, ptr %14, align 8, !tbaa !89
  %52 = call reassoc nsz arcp contract afn double @llvm.cos.f64(double %51)
  %53 = fmul reassoc nsz arcp contract afn double %50, %52
  %54 = load double, ptr %20, align 8, !tbaa !89
  %55 = fmul reassoc nsz arcp contract afn double %53, %54
  %56 = load double, ptr %20, align 8, !tbaa !89
  %57 = fmul reassoc nsz arcp contract afn double %55, %56
  %58 = fadd reassoc nsz arcp contract afn double %48, %57
  store double %58, ptr %21, align 8, !tbaa !89
  %59 = load double, ptr %21, align 8, !tbaa !89
  %60 = call reassoc nsz arcp contract afn double @llvm.sqrt.f64(double %59)
  %61 = load double, ptr %21, align 8, !tbaa !89
  %62 = fsub reassoc nsz arcp contract afn double 1.000000e+00, %61
  %63 = call reassoc nsz arcp contract afn double @llvm.sqrt.f64(double %62)
  %64 = call reassoc nsz arcp contract afn double @llvm.atan2.f64(double %60, double %63)
  %65 = fmul reassoc nsz arcp contract afn double 2.000000e+00, %64
  %66 = load ptr, ptr %12, align 8, !tbaa !90
  store double %65, ptr %66, align 8, !tbaa !89
  %67 = load ptr, ptr %12, align 8, !tbaa !90
  %68 = load double, ptr %67, align 8, !tbaa !89
  %69 = fmul reassoc nsz arcp contract afn double %68, 6.378100e+06
  %70 = load ptr, ptr %11, align 8, !tbaa !90
  store double %69, ptr %70, align 8, !tbaa !89
  call void @llvm.lifetime.end.p0(i64 8, ptr %21) #10
  call void @llvm.lifetime.end.p0(i64 8, ptr %20) #10
  call void @llvm.lifetime.end.p0(i64 8, ptr %19) #10
  call void @llvm.lifetime.end.p0(i64 8, ptr %18) #10
  call void @llvm.lifetime.end.p0(i64 8, ptr %17) #10
  call void @llvm.lifetime.end.p0(i64 8, ptr %16) #10
  call void @llvm.lifetime.end.p0(i64 8, ptr %15) #10
  call void @llvm.lifetime.end.p0(i64 8, ptr %14) #10
  call void @llvm.lifetime.end.p0(i64 8, ptr %13) #10
  ret void
}