; Function Attrs: mustprogress nofree norecurse nosync nounwind willreturn memory(argmem: write) uwtable
define void @dt_gpx_geodesic_distance(double noundef %0, double noundef %1, double noundef %2, double noundef %3, ptr noundef writeonly captures(none) initializes((0, 8)) %4, ptr noundef writeonly captures(none) initializes((0, 8)) %5) local_unnamed_addr #6 {
  %7 = fmul reassoc nsz arcp contract afn double %0, 0x3F91DF46A2529D39
  %8 = fmul reassoc nsz arcp contract afn double %2, 0x3F91DF46A2529D39
  %9 = fsub reassoc nsz arcp contract afn double %8, %7
  %10 = fsub reassoc nsz arcp contract afn double %3, %1
  %11 = fmul reassoc nsz arcp contract afn double %9, 5.000000e-01
  %12 = tail call reassoc nsz arcp contract afn double @llvm.sin.f64(double %11)
  %13 = fmul reassoc nsz arcp contract afn double %10, 0x3F81DF46A2529D39
  %14 = tail call reassoc nsz arcp contract afn double @llvm.sin.f64(double %13)
  %15 = fmul reassoc nsz arcp contract afn double %12, %12
  %16 = tail call reassoc nsz arcp contract afn double @llvm.cos.f64(double %7)
  %17 = tail call reassoc nsz arcp contract afn double @llvm.cos.f64(double %8)
  %18 = fmul reassoc nsz arcp contract afn double %17, %16
  %19 = fmul reassoc nsz arcp contract afn double %14, %14
  %20 = fmul reassoc nsz arcp contract afn double %19, %18
  %21 = fadd reassoc nsz arcp contract afn double %15, %20
  %22 = tail call reassoc nsz arcp contract afn double @llvm.sqrt.f64(double %21)
  %23 = fsub reassoc nsz arcp contract afn double 1.000000e+00, %21
  %24 = tail call reassoc nsz arcp contract afn double @llvm.sqrt.f64(double %23)
  %25 = tail call reassoc nsz arcp contract afn double @llvm.atan2.f64(double %22, double %24)
  %26 = fmul reassoc nsz arcp contract afn double %25, 2.000000e+00
  store double %26, ptr %5, align 8, !tbaa !38
  %27 = fmul reassoc nsz arcp contract afn double %25, 1.275620e+07
  store double %27, ptr %4, align 8, !tbaa !38
  ret void
}